; Function Attrs: nounwind sspstrong uwtable
define dso_local void @tcg_gen_add2_i64(ptr noundef %0, ptr noundef %1, ptr noundef %2, ptr noundef %3, ptr noundef %4, ptr noundef %5) local_unnamed_addr #2 {
  %7 = tail call align 8 ptr @llvm.threadlocal.address.p0(ptr align 8 @tcg_ctx)
  %8 = load ptr, ptr %7, align 8
  %9 = ptrtoint ptr %0 to i64
  %10 = getelementptr inbounds nuw i8, ptr %8, i64 %9
  %11 = ptrtoint ptr %10 to i64
  %12 = ptrtoint ptr %1 to i64
  %13 = getelementptr inbounds nuw i8, ptr %8, i64 %12
  %14 = ptrtoint ptr %13 to i64
  %15 = ptrtoint ptr %2 to i64
  %16 = getelementptr inbounds nuw i8, ptr %8, i64 %15
  %17 = ptrtoint ptr %16 to i64
  %18 = ptrtoint ptr %3 to i64
  %19 = getelementptr inbounds nuw i8, ptr %8, i64 %18
  %20 = ptrtoint ptr %19 to i64
  %21 = ptrtoint ptr %4 to i64
  %22 = getelementptr inbounds nuw i8, ptr %8, i64 %21
  %23 = ptrtoint ptr %22 to i64
  %24 = ptrtoint ptr %5 to i64
  %25 = getelementptr inbounds nuw i8, ptr %8, i64 %24
  %26 = ptrtoint ptr %25 to i64
  %27 = tail call ptr @tcg_gen_op6(i32 noundef 123, i32 noundef 1, i64 noundef %11, i64 noundef %14, i64 noundef %17, i64 noundef %20, i64 noundef %23, i64 noundef %26)
  ret void
}